#include <math.h>
#include <stdio.h>
#include <stdlib.h>
#include <string.h>

void main()
{
 int i=0;
 char str[10];
 scanf("%s",str);
 while(str[i]!='\0')
  i++;
 for(i--;i>=0;i--)
 printf("%c",str[i]);
 printf("\n");
}
