; ModuleID = '56/2946.c'
source_filename = "56/2946.c"
target datalayout = "e-m:e-p270:32:32-p271:32:32-p272:64:64-i64:64-f80:128-n8:16:32:64-S128"
target triple = "x86_64-pc-linux-gnu"

@.str = private unnamed_addr constant [3 x i8] c"%s\00", align 1
@.str.1 = private unnamed_addr constant [3 x i8] c"%c\00", align 1
@.str.2 = private unnamed_addr constant [2 x i8] c"\0A\00", align 1

; Function Attrs: noinline nounwind uwtable
define dso_local void @main() #0 {
  %1 = alloca i32, align 4
  %2 = alloca [10 x i8], align 1
  store i32 0, i32* %1, align 4
  %3 = getelementptr inbounds [10 x i8], [10 x i8]* %2, i64 0, i64 0
  %4 = call i32 (i8*, ...) @__isoc99_scanf(i8* getelementptr inbounds ([3 x i8], [3 x i8]* @.str, i64 0, i64 0), i8* %3)
  br label %5

5:                                                ; preds = %12, %0
  %6 = load i32, i32* %1, align 4
  %7 = sext i32 %6 to i64
  %8 = getelementptr inbounds [10 x i8], [10 x i8]* %2, i64 0, i64 %7
  %9 = load i8, i8* %8, align 1
  %10 = sext i8 %9 to i32
  %11 = icmp ne i32 %10, 0
  br i1 %11, label %12, label %15

12:                                               ; preds = %5
  %13 = load i32, i32* %1, align 4
  %14 = add nsw i32 %13, 1
  store i32 %14, i32* %1, align 4
  br label %5

15:                                               ; preds = %5
  %16 = load i32, i32* %1, align 4
  %17 = add nsw i32 %16, -1
  store i32 %17, i32* %1, align 4
  br label %18

18:                                               ; preds = %28, %15
  %19 = load i32, i32* %1, align 4
  %20 = icmp sge i32 %19, 0
  br i1 %20, label %21, label %31

21:                                               ; preds = %18
  %22 = load i32, i32* %1, align 4
  %23 = sext i32 %22 to i64
  %24 = getelementptr inbounds [10 x i8], [10 x i8]* %2, i64 0, i64 %23
  %25 = load i8, i8* %24, align 1
  %26 = sext i8 %25 to i32
  %27 = call i32 (i8*, ...) @printf(i8* getelementptr inbounds ([3 x i8], [3 x i8]* @.str.1, i64 0, i64 0), i32 %26)
  br label %28

28:                                               ; preds = %21
  %29 = load i32, i32* %1, align 4
  %30 = add nsw i32 %29, -1
  store i32 %30, i32* %1, align 4
  br label %18

31:                                               ; preds = %18
  %32 = call i32 (i8*, ...) @printf(i8* getelementptr inbounds ([2 x i8], [2 x i8]* @.str.2, i64 0, i64 0))
  ret void
}

declare dso_local i32 @__isoc99_scanf(i8*, ...) #1

declare dso_local i32 @printf(i8*, ...) #1


!llvm.module.flags = !{!0}
!llvm.ident = !{!1}

!0 = !{i32 1, !"wchar_size", i32 4}
!1 = !{!"clang version 10.0.0-4ubuntu1 "}
